; Function Attrs: nounwind uwtable
define range(i32 0, 2) i32 @ssl3_new(ptr noundef %0) local_unnamed_addr #4 {
  %2 = icmp eq ptr %0, null
  br i1 %2, label %.thread, label %3

3:                                                ; preds = %1
  %4 = load i32, ptr %0, align 8, !tbaa !10
  %5 = icmp eq i32 %4, 0
  br i1 %5, label %.thread14, label %6

6:                                                ; preds = %3
  %7 = and i32 %4, 128
  %.not = icmp eq i32 %7, 0
  br i1 %.not, label %.thread, label %8

8:                                                ; preds = %6
  %9 = tail call ptr @ossl_quic_obj_get0_handshake_layer(ptr noundef nonnull %0) #18
  %10 = icmp eq ptr %9, null
  br i1 %10, label %.thread, label %.thread14

.thread14:                                        ; preds = %3, %8
  %11 = phi ptr [ %9, %8 ], [ %0, %3 ]
  %12 = tail call i32 @ssl_srp_ctx_init_intern(ptr noundef nonnull %11) #18
  %.not12 = icmp eq i32 %12, 0
  br i1 %.not12, label %.thread, label %13

13:                                               ; preds = %.thread14
  %14 = getelementptr inbounds nuw i8, ptr %0, i64 24
  %15 = load ptr, ptr %14, align 8, !tbaa !18
  %16 = getelementptr inbounds nuw i8, ptr %15, i64 48
  %17 = load ptr, ptr %16, align 8, !tbaa !19
  %18 = tail call i32 %17(ptr noundef nonnull %0) #18
  %.not13 = icmp ne i32 %18, 0
  %. = zext i1 %.not13 to i32
  br label %.thread

.thread:                                          ; preds = %6, %1, %13, %.thread14, %8
  %.0 = phi i32 [ 0, %8 ], [ 0, %.thread14 ], [ %., %13 ], [ 0, %1 ], [ 0, %6 ]
  ret i32 %.0
}